; Function Attrs: mustprogress uwtable
define void @_ZN5faiss16ProductQuantizer17compute_sdc_tableEv(ptr noundef nonnull align 8 dereferenceable(208) %0) local_unnamed_addr #0 align 2 personality ptr @__gxx_personality_v0 {
  %2 = getelementptr inbounds i8, ptr %0, i64 184
  %3 = getelementptr inbounds i8, ptr %0, i64 24
  %4 = load i64, ptr %3, align 8
  %5 = getelementptr inbounds i8, ptr %0, i64 48
  %6 = load i64, ptr %5, align 8
  %7 = mul i64 %6, %4
  %8 = mul i64 %7, %6
  %9 = getelementptr inbounds i8, ptr %0, i64 192
  %10 = load ptr, ptr %9, align 8
  %11 = load ptr, ptr %2, align 8
  %12 = ptrtoint ptr %10 to i64
  %13 = ptrtoint ptr %11 to i64
  %14 = sub i64 %12, %13
  %15 = ashr exact i64 %14, 2
  %16 = icmp ult i64 %15, %8
  br i1 %16, label %17, label %19

17:                                               ; preds = %1
  %18 = sub i64 %8, %15
  tail call void @_ZNSt6vectorIfSaIfEE17_M_default_appendEm(ptr noundef nonnull align 8 dereferenceable(24) %2, i64 noundef %18)
  br label %_ZNSt6vectorIfSaIfEE6resizeEm.exit

19:                                               ; preds = %1
  %20 = icmp ugt i64 %15, %8
  br i1 %20, label %21, label %_ZNSt6vectorIfSaIfEE6resizeEm.exit

21:                                               ; preds = %19
  %22 = getelementptr inbounds float, ptr %11, i64 %8
  %.not.i.i = icmp eq ptr %10, %22
  br i1 %.not.i.i, label %_ZNSt6vectorIfSaIfEE6resizeEm.exit, label %23

23:                                               ; preds = %21
  store ptr %22, ptr %9, align 8
  br label %_ZNSt6vectorIfSaIfEE6resizeEm.exit

_ZNSt6vectorIfSaIfEE6resizeEm.exit:               ; preds = %17, %19, %21, %23
  %24 = getelementptr inbounds i8, ptr %0, i64 40
  %25 = load i64, ptr %24, align 8
  %26 = icmp ult i64 %25, 4
  %_ZN5faiss16ProductQuantizer17compute_sdc_tableEv.omp_outlined._ZN5faiss16ProductQuantizer17compute_sdc_tableEv.omp_outlined.14 = select i1 %26, ptr @_ZN5faiss16ProductQuantizer17compute_sdc_tableEv.omp_outlined, ptr @_ZN5faiss16ProductQuantizer17compute_sdc_tableEv.omp_outlined.14
  tail call void (ptr, i32, ptr, ...) @__kmpc_fork_call(ptr nonnull @2, i32 1, ptr nonnull %_ZN5faiss16ProductQuantizer17compute_sdc_tableEv.omp_outlined._ZN5faiss16ProductQuantizer17compute_sdc_tableEv.omp_outlined.14, ptr nonnull %0)
  ret void
}